; ModuleID = '56/2455.cpp'
source_filename = "56/2455.cpp"
target datalayout = "e-m:e-p270:32:32-p271:32:32-p272:64:64-i64:64-f80:128-n8:16:32:64-S128"
target triple = "x86_64-pc-linux-gnu"

%"class.std::ios_base::Init" = type { i8 }
%"class.std::basic_istream" = type { i32 (...)**, i64, %"class.std::basic_ios" }
%"class.std::basic_ios" = type { %"class.std::ios_base", %"class.std::basic_ostream"*, i8, i8, %"class.std::basic_streambuf"*, %"class.std::ctype"*, %"class.std::num_put"*, %"class.std::num_get"* }
%"class.std::ios_base" = type { i32 (...)**, i64, i64, i32, i32, i32, %"struct.std::ios_base::_Callback_list"*, %"struct.std::ios_base::_Words", [8 x %"struct.std::ios_base::_Words"], i32, %"struct.std::ios_base::_Words"*, %"class.std::locale" }
%"struct.std::ios_base::_Callback_list" = type { %"struct.std::ios_base::_Callback_list"*, void (i32, %"class.std::ios_base"*, i32)*, i32, i32 }
%"struct.std::ios_base::_Words" = type { i8*, i64 }
%"class.std::locale" = type { %"class.std::locale::_Impl"* }
%"class.std::locale::_Impl" = type { i32, %"class.std::locale::facet"**, i64, %"class.std::locale::facet"**, i8** }
%"class.std::locale::facet" = type <{ i32 (...)**, i32, [4 x i8] }>
%"class.std::basic_ostream" = type { i32 (...)**, %"class.std::basic_ios" }
%"class.std::basic_streambuf" = type { i32 (...)**, i8*, i8*, i8*, i8*, i8*, i8*, %"class.std::locale" }
%"class.std::ctype" = type <{ %"class.std::locale::facet.base", [4 x i8], %struct.__locale_struct*, i8, [7 x i8], i32*, i32*, i16*, i8, [256 x i8], [256 x i8], i8, [6 x i8] }>
%"class.std::locale::facet.base" = type <{ i32 (...)**, i32 }>
%struct.__locale_struct = type { [13 x %struct.__locale_data*], i16*, i32*, i32*, [13 x i8*] }
%struct.__locale_data = type opaque
%"class.std::num_put" = type { %"class.std::locale::facet.base", [4 x i8] }
%"class.std::num_get" = type { %"class.std::locale::facet.base", [4 x i8] }

@_ZStL8__ioinit = internal global %"class.std::ios_base::Init" zeroinitializer, align 1
@__dso_handle = external hidden global i8
@_ZSt3cin = external dso_local global %"class.std::basic_istream", align 8
@_ZSt4cout = external dso_local global %"class.std::basic_ostream", align 8
@llvm.global_ctors = appending global [1 x { i32, void ()*, i8* }] [{ i32, void ()*, i8* } { i32 65535, void ()* @_GLOBAL__sub_I_2455.cpp, i8* null }]

; Function Attrs: noinline uwtable
define internal void @__cxx_global_var_init() #0 section ".text.startup" {
  call void @_ZNSt8ios_base4InitC1Ev(%"class.std::ios_base::Init"* @_ZStL8__ioinit)
  %1 = call i32 @__cxa_atexit(void (i8*)* bitcast (void (%"class.std::ios_base::Init"*)* @_ZNSt8ios_base4InitD1Ev to void (i8*)*), i8* getelementptr inbounds (%"class.std::ios_base::Init", %"class.std::ios_base::Init"* @_ZStL8__ioinit, i32 0, i32 0), i8* @__dso_handle) #3
  ret void
}

declare dso_local void @_ZNSt8ios_base4InitC1Ev(%"class.std::ios_base::Init"*) unnamed_addr #1

; Function Attrs: nounwind
declare dso_local void @_ZNSt8ios_base4InitD1Ev(%"class.std::ios_base::Init"*) unnamed_addr #2

; Function Attrs: nounwind
declare dso_local i32 @__cxa_atexit(void (i8*)*, i8*, i8*) #3

; Function Attrs: noinline norecurse uwtable
define dso_local i32 @main() #4 {
  %1 = alloca i32, align 4
  %2 = alloca i32, align 4
  %3 = alloca i32, align 4
  %4 = alloca [5 x i32], align 16
  store i32 0, i32* %1, align 4
  %5 = call dereferenceable(280) %"class.std::basic_istream"* @_ZNSirsERi(%"class.std::basic_istream"* @_ZSt3cin, i32* dereferenceable(4) %2)
  %6 = getelementptr inbounds [5 x i32], [5 x i32]* %4, i64 0, i64 0
  store i32 0, i32* %6, align 16
  br label %7

7:                                                ; preds = %98, %0
  %8 = getelementptr inbounds [5 x i32], [5 x i32]* %4, i64 0, i64 0
  %9 = load i32, i32* %8, align 16
  %10 = icmp slt i32 %9, 10
  br i1 %10, label %11, label %102

11:                                               ; preds = %7
  %12 = getelementptr inbounds [5 x i32], [5 x i32]* %4, i64 0, i64 1
  store i32 0, i32* %12, align 4
  br label %13

13:                                               ; preds = %93, %11
  %14 = getelementptr inbounds [5 x i32], [5 x i32]* %4, i64 0, i64 1
  %15 = load i32, i32* %14, align 4
  %16 = icmp slt i32 %15, 10
  br i1 %16, label %17, label %97

17:                                               ; preds = %13
  %18 = getelementptr inbounds [5 x i32], [5 x i32]* %4, i64 0, i64 2
  store i32 0, i32* %18, align 8
  br label %19

19:                                               ; preds = %88, %17
  %20 = getelementptr inbounds [5 x i32], [5 x i32]* %4, i64 0, i64 2
  %21 = load i32, i32* %20, align 8
  %22 = icmp slt i32 %21, 10
  br i1 %22, label %23, label %92

23:                                               ; preds = %19
  %24 = getelementptr inbounds [5 x i32], [5 x i32]* %4, i64 0, i64 3
  store i32 0, i32* %24, align 4
  br label %25

25:                                               ; preds = %83, %23
  %26 = getelementptr inbounds [5 x i32], [5 x i32]* %4, i64 0, i64 3
  %27 = load i32, i32* %26, align 4
  %28 = icmp slt i32 %27, 10
  br i1 %28, label %29, label %87

29:                                               ; preds = %25
  %30 = getelementptr inbounds [5 x i32], [5 x i32]* %4, i64 0, i64 4
  store i32 0, i32* %30, align 16
  br label %31

31:                                               ; preds = %78, %29
  %32 = getelementptr inbounds [5 x i32], [5 x i32]* %4, i64 0, i64 4
  %33 = load i32, i32* %32, align 16
  %34 = icmp slt i32 %33, 10
  br i1 %34, label %35, label %82

35:                                               ; preds = %31
  %36 = getelementptr inbounds [5 x i32], [5 x i32]* %4, i64 0, i64 0
  %37 = load i32, i32* %36, align 16
  %38 = getelementptr inbounds [5 x i32], [5 x i32]* %4, i64 0, i64 1
  %39 = load i32, i32* %38, align 4
  %40 = mul nsw i32 10, %39
  %41 = add nsw i32 %37, %40
  %42 = getelementptr inbounds [5 x i32], [5 x i32]* %4, i64 0, i64 2
  %43 = load i32, i32* %42, align 8
  %44 = mul nsw i32 100, %43
  %45 = add nsw i32 %41, %44
  %46 = getelementptr inbounds [5 x i32], [5 x i32]* %4, i64 0, i64 3
  %47 = load i32, i32* %46, align 4
  %48 = mul nsw i32 1000, %47
  %49 = add nsw i32 %45, %48
  %50 = getelementptr inbounds [5 x i32], [5 x i32]* %4, i64 0, i64 4
  %51 = load i32, i32* %50, align 16
  %52 = mul nsw i32 10000, %51
  %53 = add nsw i32 %49, %52
  %54 = load i32, i32* %2, align 4
  %55 = icmp eq i32 %53, %54
  br i1 %55, label %56, label %77

56:                                               ; preds = %35
  store i32 0, i32* %3, align 4
  br label %57

57:                                               ; preds = %73, %56
  %58 = load i32, i32* %3, align 4
  %59 = icmp slt i32 %58, 5
  br i1 %59, label %60, label %76

60:                                               ; preds = %57
  %61 = load i32, i32* %3, align 4
  %62 = sext i32 %61 to i64
  %63 = getelementptr inbounds [5 x i32], [5 x i32]* %4, i64 0, i64 %62
  %64 = load i32, i32* %63, align 4
  %65 = icmp ne i32 %64, 0
  br i1 %65, label %66, label %72

66:                                               ; preds = %60
  %67 = load i32, i32* %3, align 4
  %68 = sext i32 %67 to i64
  %69 = getelementptr inbounds [5 x i32], [5 x i32]* %4, i64 0, i64 %68
  %70 = load i32, i32* %69, align 4
  %71 = call dereferenceable(272) %"class.std::basic_ostream"* @_ZNSolsEi(%"class.std::basic_ostream"* @_ZSt4cout, i32 %70)
  br label %72

72:                                               ; preds = %66, %60
  br label %73

73:                                               ; preds = %72
  %74 = load i32, i32* %3, align 4
  %75 = add nsw i32 %74, 1
  store i32 %75, i32* %3, align 4
  br label %57

76:                                               ; preds = %57
  br label %77

77:                                               ; preds = %76, %35
  br label %78

78:                                               ; preds = %77
  %79 = getelementptr inbounds [5 x i32], [5 x i32]* %4, i64 0, i64 4
  %80 = load i32, i32* %79, align 16
  %81 = add nsw i32 %80, 1
  store i32 %81, i32* %79, align 16
  br label %31

82:                                               ; preds = %31
  br label %83

83:                                               ; preds = %82
  %84 = getelementptr inbounds [5 x i32], [5 x i32]* %4, i64 0, i64 3
  %85 = load i32, i32* %84, align 4
  %86 = add nsw i32 %85, 1
  store i32 %86, i32* %84, align 4
  br label %25

87:                                               ; preds = %25
  br label %88

88:                                               ; preds = %87
  %89 = getelementptr inbounds [5 x i32], [5 x i32]* %4, i64 0, i64 2
  %90 = load i32, i32* %89, align 8
  %91 = add nsw i32 %90, 1
  store i32 %91, i32* %89, align 8
  br label %19

92:                                               ; preds = %19
  br label %93

93:                                               ; preds = %92
  %94 = getelementptr inbounds [5 x i32], [5 x i32]* %4, i64 0, i64 1
  %95 = load i32, i32* %94, align 4
  %96 = add nsw i32 %95, 1
  store i32 %96, i32* %94, align 4
  br label %13

97:                                               ; preds = %13
  br label %98

98:                                               ; preds = %97
  %99 = getelementptr inbounds [5 x i32], [5 x i32]* %4, i64 0, i64 0
  %100 = load i32, i32* %99, align 16
  %101 = add nsw i32 %100, 1
  store i32 %101, i32* %99, align 16
  br label %7

102:                                              ; preds = %7
  ret i32 0
}

declare dso_local dereferenceable(280) %"class.std::basic_istream"* @_ZNSirsERi(%"class.std::basic_istream"*, i32* dereferenceable(4)) #1

declare dso_local dereferenceable(272) %"class.std::basic_ostream"* @_ZNSolsEi(%"class.std::basic_ostream"*, i32) #1

; Function Attrs: noinline uwtable
define internal void @_GLOBAL__sub_I_2455.cpp() #0 section ".text.startup" {
  call void @__cxx_global_var_init()
  ret void
}


!llvm.module.flags = !{!0}
!llvm.ident = !{!1}

!0 = !{i32 1, !"wchar_size", i32 4}
!1 = !{!"clang version 10.0.0-4ubuntu1 "}
